target datalayout = "e-m:e-p270:32:32-p271:32:32-p272:64:64-i64:64-i128:128-f80:128-n8:16:32:64-S128"
target triple = "x86_64-pc-linux-gnu"

%union.SourceSpan = type { i64 }
%struct.GenContext_ = type { i8, ptr, ptr, ptr, ptr, ptr, ptr, ptr, ptr, ptr, ptr, ptr, ptr, ptr, ptr, ptr, ptr, ptr, ptr, ptr, ptr, ptr, ptr, ptr, ptr, ptr, ptr, ptr, ptr, ptr, ptr, ptr, ptr, %struct.anon.85, i32, i32, %struct.DebugContext, ptr, ptr, ptr, %struct.BEValue, i8, %union.SourceSpan, ptr, ptr, ptr, ptr }
%struct.anon.85 = type { ptr, ptr, ptr }
%struct.DebugContext = type { i16, ptr, ptr, %struct.DebugFile_, ptr, ptr, ptr, ptr }
%struct.DebugFile_ = type { i16, ptr }
%struct.BEValue = type { i8, i32, ptr, ptr, ptr }
%struct.Type_ = type { i32, ptr, ptr, ptr, %union.anon.86, ptr, ptr, %union.anon.88 }
%union.anon.86 = type { ptr }
%union.anon.88 = type { %struct.TypeFunction }
%struct.TypeFunction = type { ptr, ptr, ptr }

@.str.5 = private unnamed_addr constant [5 x i8] c"$ct.\00", align 1
@.str.6 = private unnamed_addr constant [1 x i8] zeroinitializer, align 1
@type_typeid = external global ptr, align 8

; Function Attrs: nounwind uwtable
define internal ptr @llvm_generate_introspection_global(ptr noundef %0, ptr noundef %1, ptr noundef %2, i32 noundef %3, ptr noundef %4, i64 noundef %5, ptr noundef %6, i1 noundef zeroext %7) #0 {
  %9 = alloca ptr, align 8
  %10 = alloca ptr, align 8
  %11 = alloca i32, align 4
  %12 = alloca ptr, align 8
  %13 = alloca ptr, align 8
  %14 = alloca i64, align 8
  %15 = alloca ptr, align 8
  %16 = alloca ptr, align 8
  %17 = alloca ptr, align 8
  %18 = alloca ptr, align 8
  %19 = alloca ptr, align 8
  %20 = alloca i32, align 4
  %21 = alloca ptr, align 8
  %22 = alloca i64, align 8
  %23 = alloca ptr, align 8
  %24 = alloca i8, align 1
  %25 = alloca ptr, align 8
  %26 = alloca ptr, align 8
  %27 = alloca [7 x ptr], align 16
  %28 = alloca ptr, align 8
  %29 = alloca ptr, align 8
  store ptr %0, ptr %17, align 8
  store ptr %1, ptr %18, align 8
  store ptr %2, ptr %19, align 8
  store i32 %3, ptr %20, align 4
  store ptr %4, ptr %21, align 8
  store i64 %5, ptr %22, align 8
  store ptr %6, ptr %23, align 8
  %30 = zext i1 %7 to i8
  store i8 %30, ptr %24, align 1
  %31 = load ptr, ptr %18, align 8
  %32 = icmp ne ptr %31, null
  br i1 %32, label %33, label %34

33:                                               ; preds = %8
  br label %34

34:                                               ; preds = %33, %8
  %35 = load ptr, ptr %19, align 8
  %36 = call ptr @type_find_parent_type(ptr noundef %35)
  store ptr %36, ptr %25, align 8
  store ptr null, ptr %26, align 8
  %37 = load ptr, ptr %23, align 8
  %38 = icmp ne ptr %37, null
  br i1 %38, label %59, label %39

39:                                               ; preds = %34
  call void @scratch_buffer_clear()
  call void @scratch_buffer_append(ptr noundef @.str.5)
  %40 = load ptr, ptr %19, align 8
  call void @type_mangle_introspect_name_to_buffer(ptr noundef %40)
  %41 = load ptr, ptr %17, align 8
  %42 = getelementptr inbounds %struct.GenContext_, ptr %41, i32 0, i32 1
  %43 = load ptr, ptr %42, align 8
  %44 = load ptr, ptr %17, align 8
  %45 = getelementptr inbounds %struct.GenContext_, ptr %44, i32 0, i32 22
  %46 = load ptr, ptr %45, align 8
  %47 = call ptr @scratch_buffer_to_string()
  %48 = call ptr @LLVMAddGlobal(ptr noundef %43, ptr noundef %46, ptr noundef %47)
  store ptr %48, ptr %26, align 8
  %49 = load ptr, ptr %17, align 8
  %50 = getelementptr inbounds %struct.GenContext_, ptr %49, i32 0, i32 8
  %51 = load ptr, ptr %50, align 8
  %52 = load ptr, ptr %26, align 8
  %53 = load ptr, ptr %17, align 8
  %54 = getelementptr inbounds %struct.GenContext_, ptr %53, i32 0, i32 25
  %55 = load ptr, ptr %54, align 8
  %56 = call ptr @LLVMBuildPtrToInt(ptr noundef %51, ptr noundef %52, ptr noundef %55, ptr noundef @.str.6)
  %57 = load ptr, ptr %19, align 8
  %58 = getelementptr inbounds %struct.Type_, ptr %57, i32 0, i32 5
  store ptr %56, ptr %58, align 8
  br label %59

59:                                               ; preds = %39, %34
  %60 = getelementptr inbounds [7 x ptr], ptr %27, i64 0, i64 0
  %61 = load ptr, ptr %17, align 8
  %62 = getelementptr inbounds %struct.GenContext_, ptr %61, i32 0, i32 21
  %63 = load ptr, ptr %62, align 8
  %64 = load i32, ptr %20, align 4
  %65 = zext i32 %64 to i64
  %66 = call ptr @LLVMConstInt(ptr noundef %63, i64 noundef %65, i32 noundef 0)
  store ptr %66, ptr %60, align 8
  %67 = getelementptr inbounds ptr, ptr %60, i64 1
  %68 = load ptr, ptr %25, align 8
  %69 = icmp ne ptr %68, null
  br i1 %69, label %70, label %76

70:                                               ; preds = %59
  %71 = load ptr, ptr %17, align 8
  %72 = load ptr, ptr %25, align 8
  %73 = getelementptr inbounds %struct.Type_, ptr %72, i32 0, i32 1
  %74 = load ptr, ptr %73, align 8
  %75 = call ptr @llvm_get_typeid(ptr noundef %71, ptr noundef %74)
  br label %81

76:                                               ; preds = %59
  %77 = load ptr, ptr %17, align 8
  %78 = getelementptr inbounds %struct.GenContext_, ptr %77, i32 0, i32 25
  %79 = load ptr, ptr %78, align 8
  %80 = call ptr @LLVMConstNull(ptr noundef %79)
  br label %81

81:                                               ; preds = %76, %70
  %82 = phi ptr [ %75, %70 ], [ %80, %76 ]
  store ptr %82, ptr %67, align 8
  %83 = getelementptr inbounds ptr, ptr %67, i64 1
  %84 = load ptr, ptr %17, align 8
  %85 = getelementptr inbounds %struct.GenContext_, ptr %84, i32 0, i32 27
  %86 = load ptr, ptr %85, align 8
  %87 = call ptr @LLVMConstNull(ptr noundef %86)
  store ptr %87, ptr %83, align 8
  %88 = getelementptr inbounds ptr, ptr %83, i64 1
  %89 = load ptr, ptr %17, align 8
  %90 = getelementptr inbounds %struct.GenContext_, ptr %89, i32 0, i32 24
  %91 = load ptr, ptr %90, align 8
  %92 = load ptr, ptr %19, align 8
  %93 = call i32 @type_size(ptr noundef %92)
  %94 = zext i32 %93 to i64
  %95 = call ptr @LLVMConstInt(ptr noundef %91, i64 noundef %94, i32 noundef 0)
  store ptr %95, ptr %88, align 8
  %96 = getelementptr inbounds ptr, ptr %88, i64 1
  %97 = load ptr, ptr %21, align 8
  %98 = icmp ne ptr %97, null
  br i1 %98, label %99, label %103

99:                                               ; preds = %81
  %100 = load ptr, ptr %17, align 8
  %101 = load ptr, ptr %21, align 8
  %102 = call ptr @llvm_get_typeid(ptr noundef %100, ptr noundef %101)
  br label %110

103:                                              ; preds = %81
  %104 = load ptr, ptr %17, align 8
  %105 = load ptr, ptr @type_typeid, align 8
  store ptr %104, ptr %15, align 8
  store ptr %105, ptr %16, align 8
  %106 = load ptr, ptr %15, align 8
  %107 = load ptr, ptr %16, align 8
  %108 = call ptr @llvm_get_type(ptr noundef %106, ptr noundef %107)
  %109 = call ptr @LLVMConstNull(ptr noundef %108) #5
  br label %110

110:                                              ; preds = %103, %99
  %111 = phi ptr [ %102, %99 ], [ %109, %103 ]
  store ptr %111, ptr %96, align 8
  %112 = getelementptr inbounds ptr, ptr %96, i64 1
  %113 = load ptr, ptr %17, align 8
  %114 = getelementptr inbounds %struct.GenContext_, ptr %113, i32 0, i32 24
  %115 = load ptr, ptr %114, align 8
  %116 = load i64, ptr %22, align 8
  %117 = call ptr @LLVMConstInt(ptr noundef %115, i64 noundef %116, i32 noundef 0)
  store ptr %117, ptr %112, align 8
  %118 = getelementptr inbounds ptr, ptr %112, i64 1
  %119 = load ptr, ptr %23, align 8
  %120 = icmp ne ptr %119, null
  br i1 %120, label %121, label %123

121:                                              ; preds = %110
  %122 = load ptr, ptr %23, align 8
  br label %128

123:                                              ; preds = %110
  %124 = load ptr, ptr %17, align 8
  %125 = getelementptr inbounds %struct.GenContext_, ptr %124, i32 0, i32 24
  %126 = load ptr, ptr %125, align 8
  %127 = call ptr @LLVMConstArray(ptr noundef %126, ptr noundef null, i32 noundef 0)
  br label %128

128:                                              ; preds = %123, %121
  %129 = phi ptr [ %122, %121 ], [ %127, %123 ]
  store ptr %129, ptr %118, align 8
  %130 = load ptr, ptr %23, align 8
  %131 = icmp ne ptr %130, null
  br i1 %131, label %132, label %152

132:                                              ; preds = %128
  call void @scratch_buffer_clear()
  call void @scratch_buffer_append(ptr noundef @.str.5)
  %133 = load ptr, ptr %19, align 8
  call void @type_mangle_introspect_name_to_buffer(ptr noundef %133)
  %134 = load ptr, ptr %17, align 8
  %135 = getelementptr inbounds [7 x ptr], ptr %27, i64 0, i64 0
  store ptr %134, ptr %12, align 8
  store ptr %135, ptr %13, align 8
  store i64 7, ptr %14, align 8
  %136 = load ptr, ptr %12, align 8
  %137 = getelementptr inbounds %struct.GenContext_, ptr %136, i32 0, i32 5
  %138 = load ptr, ptr %137, align 8
  %139 = load ptr, ptr %13, align 8
  %140 = load i64, ptr %14, align 8
  %141 = trunc i64 %140 to i32
  %142 = call ptr @LLVMConstStructInContext(ptr noundef %138, ptr noundef %139, i32 noundef %141, i32 noundef 0) #5
  store ptr %142, ptr %28, align 8
  %143 = load ptr, ptr %17, align 8
  %144 = getelementptr inbounds %struct.GenContext_, ptr %143, i32 0, i32 1
  %145 = load ptr, ptr %144, align 8
  %146 = load ptr, ptr %28, align 8
  %147 = call ptr @LLVMTypeOf(ptr noundef %146)
  %148 = call ptr @scratch_buffer_to_string()
  %149 = call ptr @LLVMAddGlobal(ptr noundef %145, ptr noundef %147, ptr noundef %148)
  store ptr %149, ptr %26, align 8
  %150 = load ptr, ptr %26, align 8
  %151 = load ptr, ptr %28, align 8
  call void @LLVMSetInitializer(ptr noundef %150, ptr noundef %151)
  br label %163

152:                                              ; preds = %128
  %153 = load ptr, ptr %17, align 8
  %154 = getelementptr inbounds %struct.GenContext_, ptr %153, i32 0, i32 22
  %155 = load ptr, ptr %154, align 8
  %156 = getelementptr inbounds [7 x ptr], ptr %27, i64 0, i64 0
  store ptr %155, ptr %9, align 8
  store ptr %156, ptr %10, align 8
  store i32 7, ptr %11, align 4
  %157 = load ptr, ptr %9, align 8
  %158 = load ptr, ptr %10, align 8
  %159 = load i32, ptr %11, align 4
  %160 = call ptr @LLVMConstNamedStruct(ptr noundef %157, ptr noundef %158, i32 noundef %159) #5
  store ptr %160, ptr %29, align 8
  %161 = load ptr, ptr %26, align 8
  %162 = load ptr, ptr %29, align 8
  call void @LLVMSetInitializer(ptr noundef %161, ptr noundef %162)
  br label %163

163:                                              ; preds = %152, %132
  %164 = load ptr, ptr %26, align 8
  %165 = load ptr, ptr %17, align 8
  %166 = load ptr, ptr %17, align 8
  %167 = getelementptr inbounds %struct.GenContext_, ptr %166, i32 0, i32 22
  %168 = load ptr, ptr %167, align 8
  %169 = call i32 @llvm_abi_alignment(ptr noundef %165, ptr noundef %168)
  call void @LLVMSetAlignment(ptr noundef %164, i32 noundef %169)
  %170 = load ptr, ptr %26, align 8
  call void @LLVMSetGlobalConstant(ptr noundef %170, i32 noundef 0)
  %171 = load i8, ptr %24, align 1
  %172 = trunc i8 %171 to i1
  br i1 %172, label %173, label %175

173:                                              ; preds = %163
  %174 = load ptr, ptr %26, align 8
  call void @LLVMSetLinkage(ptr noundef %174, i32 noundef 0)
  br label %178

175:                                              ; preds = %163
  %176 = load ptr, ptr %17, align 8
  %177 = load ptr, ptr %26, align 8
  call void @llvm_set_linkonce(ptr noundef %176, ptr noundef %177)
  br label %178

178:                                              ; preds = %175, %173
  %179 = load ptr, ptr %18, align 8
  %180 = icmp ne ptr %179, null
  br i1 %180, label %181, label %185

181:                                              ; preds = %178
  %182 = load ptr, ptr %18, align 8
  %183 = load ptr, ptr %26, align 8
  call void @LLVMReplaceAllUsesWith(ptr noundef %182, ptr noundef %183)
  %184 = load ptr, ptr %18, align 8
  call void @LLVMDeleteGlobal(ptr noundef %184)
  br label %196

185:                                              ; preds = %178
  %186 = load ptr, ptr %17, align 8
  %187 = getelementptr inbounds %struct.GenContext_, ptr %186, i32 0, i32 8
  %188 = load ptr, ptr %187, align 8
  %189 = load ptr, ptr %26, align 8
  %190 = load ptr, ptr %17, align 8
  %191 = getelementptr inbounds %struct.GenContext_, ptr %190, i32 0, i32 25
  %192 = load ptr, ptr %191, align 8
  %193 = call ptr @LLVMBuildPtrToInt(ptr noundef %188, ptr noundef %189, ptr noundef %192, ptr noundef @.str.6)
  %194 = load ptr, ptr %19, align 8
  %195 = getelementptr inbounds %struct.Type_, ptr %194, i32 0, i32 5
  store ptr %193, ptr %195, align 8
  br label %196

196:                                              ; preds = %185, %181
  %197 = load ptr, ptr %19, align 8
  %198 = getelementptr inbounds %struct.Type_, ptr %197, i32 0, i32 5
  %199 = load ptr, ptr %198, align 8
  ret ptr %199
}