; Function Attrs: nounwind uwtable
define internal fastcc ptr @llvm_generate_introspection_global(ptr noundef %0, ptr noundef %1, ptr noundef %2, i32 noundef %3, ptr noundef %4, i64 noundef %5, ptr noundef %6, i1 noundef zeroext %7) unnamed_addr #0 {
  %9 = alloca [7 x ptr], align 16
  %10 = tail call ptr @type_find_parent_type(ptr noundef %2) #6
  %.not = icmp eq ptr %6, null
  br i1 %.not, label %11, label %24

11:                                               ; preds = %8
  tail call void @scratch_buffer_clear() #6
  tail call void @scratch_buffer_append(ptr noundef nonnull @.str.5) #6
  tail call void @type_mangle_introspect_name_to_buffer(ptr noundef %2) #6
  %12 = getelementptr inbounds i8, ptr %0, i64 8
  %13 = load ptr, ptr %12, align 8
  %14 = getelementptr inbounds i8, ptr %0, i64 176
  %15 = load ptr, ptr %14, align 8
  %16 = tail call ptr @scratch_buffer_to_string() #6
  %17 = tail call ptr @LLVMAddGlobal(ptr noundef %13, ptr noundef %15, ptr noundef %16) #6
  %18 = getelementptr inbounds i8, ptr %0, i64 64
  %19 = load ptr, ptr %18, align 8
  %20 = getelementptr inbounds i8, ptr %0, i64 200
  %21 = load ptr, ptr %20, align 8
  %22 = tail call ptr @LLVMBuildPtrToInt(ptr noundef %19, ptr noundef %17, ptr noundef %21, ptr noundef nonnull @.str.6) #6
  %23 = getelementptr inbounds i8, ptr %2, i64 40
  store ptr %22, ptr %23, align 8
  br label %24

24:                                               ; preds = %11, %8
  %.0 = phi ptr [ null, %8 ], [ %17, %11 ]
  %25 = getelementptr inbounds i8, ptr %0, i64 168
  %26 = load ptr, ptr %25, align 8
  %27 = zext nneg i32 %3 to i64
  %28 = tail call ptr @LLVMConstInt(ptr noundef %26, i64 noundef %27, i32 noundef 0) #6
  store ptr %28, ptr %9, align 16
  %29 = getelementptr inbounds i8, ptr %9, i64 8
  %.not66 = icmp eq ptr %10, null
  br i1 %.not66, label %34, label %30

30:                                               ; preds = %24
  %31 = getelementptr inbounds i8, ptr %10, i64 8
  %32 = load ptr, ptr %31, align 8
  %33 = tail call ptr @llvm_get_typeid(ptr noundef nonnull %0, ptr noundef %32)
  br label %38

34:                                               ; preds = %24
  %35 = getelementptr inbounds i8, ptr %0, i64 200
  %36 = load ptr, ptr %35, align 8
  %37 = tail call ptr @LLVMConstNull(ptr noundef %36) #6
  br label %38

38:                                               ; preds = %34, %30
  %39 = phi ptr [ %33, %30 ], [ %37, %34 ]
  store ptr %39, ptr %29, align 8
  %40 = getelementptr inbounds i8, ptr %9, i64 16
  %41 = getelementptr inbounds i8, ptr %0, i64 216
  %42 = load ptr, ptr %41, align 8
  %43 = tail call ptr @LLVMConstNull(ptr noundef %42) #6
  store ptr %43, ptr %40, align 16
  %44 = getelementptr inbounds i8, ptr %9, i64 24
  %45 = getelementptr inbounds i8, ptr %0, i64 192
  %46 = load ptr, ptr %45, align 8
  %47 = tail call i32 @type_size(ptr noundef %2) #6
  %48 = zext i32 %47 to i64
  %49 = tail call ptr @LLVMConstInt(ptr noundef %46, i64 noundef %48, i32 noundef 0) #6
  store ptr %49, ptr %44, align 8
  %50 = getelementptr inbounds i8, ptr %9, i64 32
  %.not67 = icmp eq ptr %4, null
  br i1 %.not67, label %53, label %51

51:                                               ; preds = %38
  %52 = tail call ptr @llvm_get_typeid(ptr noundef nonnull %0, ptr noundef nonnull %4)
  br label %57

53:                                               ; preds = %38
  %54 = load ptr, ptr @type_typeid, align 8
  %55 = tail call ptr @llvm_get_type(ptr noundef nonnull %0, ptr noundef %54)
  %56 = tail call ptr @LLVMConstNull(ptr noundef %55) #6
  br label %57

57:                                               ; preds = %53, %51
  %58 = phi ptr [ %52, %51 ], [ %56, %53 ]
  store ptr %58, ptr %50, align 16
  %59 = getelementptr inbounds i8, ptr %9, i64 40
  %60 = load ptr, ptr %45, align 8
  %61 = tail call ptr @LLVMConstInt(ptr noundef %60, i64 noundef %5, i32 noundef 0) #6
  store ptr %61, ptr %59, align 8
  %62 = getelementptr inbounds i8, ptr %9, i64 48
  br i1 %.not, label %63, label %.critedge

63:                                               ; preds = %57
  %64 = load ptr, ptr %45, align 8
  %65 = tail call ptr @LLVMConstArray(ptr noundef %64, ptr noundef null, i32 noundef 0) #6
  store ptr %65, ptr %62, align 16
  %66 = getelementptr inbounds i8, ptr %0, i64 176
  %67 = load ptr, ptr %66, align 8
  %68 = call ptr @LLVMConstNamedStruct(ptr noundef %67, ptr noundef nonnull %9, i32 noundef 7) #6
  call void @LLVMSetInitializer(ptr noundef %.0, ptr noundef %68) #6
  br label %77

.critedge:                                        ; preds = %57
  store ptr %6, ptr %62, align 16
  tail call void @scratch_buffer_clear() #6
  tail call void @scratch_buffer_append(ptr noundef nonnull @.str.5) #6
  tail call void @type_mangle_introspect_name_to_buffer(ptr noundef %2) #6
  %69 = getelementptr inbounds i8, ptr %0, i64 40
  %70 = load ptr, ptr %69, align 8
  %71 = call ptr @LLVMConstStructInContext(ptr noundef %70, ptr noundef nonnull %9, i32 noundef 7, i32 noundef 0) #6
  %72 = getelementptr inbounds i8, ptr %0, i64 8
  %73 = load ptr, ptr %72, align 8
  %74 = call ptr @LLVMTypeOf(ptr noundef %71) #6
  %75 = call ptr @scratch_buffer_to_string() #6
  %76 = call ptr @LLVMAddGlobal(ptr noundef %73, ptr noundef %74, ptr noundef %75) #6
  call void @LLVMSetInitializer(ptr noundef %76, ptr noundef %71) #6
  br label %77

77:                                               ; preds = %63, %.critedge
  %.1 = phi ptr [ %76, %.critedge ], [ %.0, %63 ]
  %78 = getelementptr inbounds i8, ptr %0, i64 176
  %79 = load ptr, ptr %78, align 8
  %80 = call i32 @llvm_abi_alignment(ptr noundef nonnull %0, ptr noundef %79) #6
  call void @LLVMSetAlignment(ptr noundef %.1, i32 noundef %80) #6
  call void @LLVMSetGlobalConstant(ptr noundef %.1, i32 noundef 0) #6
  br i1 %7, label %81, label %82

81:                                               ; preds = %77
  call void @LLVMSetLinkage(ptr noundef %.1, i32 noundef 0) #6
  br label %83

82:                                               ; preds = %77
  call void @llvm_set_linkonce(ptr noundef nonnull %0, ptr noundef %.1) #6
  br label %83

83:                                               ; preds = %82, %81
  %.not68 = icmp eq ptr %1, null
  br i1 %.not68, label %85, label %84

84:                                               ; preds = %83
  call void @LLVMReplaceAllUsesWith(ptr noundef nonnull %1, ptr noundef %.1) #6
  call void @LLVMDeleteGlobal(ptr noundef nonnull %1) #6
  %.phi.trans.insert = getelementptr inbounds i8, ptr %2, i64 40
  %.pre = load ptr, ptr %.phi.trans.insert, align 8
  br label %92

85:                                               ; preds = %83
  %86 = getelementptr inbounds i8, ptr %0, i64 64
  %87 = load ptr, ptr %86, align 8
  %88 = getelementptr inbounds i8, ptr %0, i64 200
  %89 = load ptr, ptr %88, align 8
  %90 = call ptr @LLVMBuildPtrToInt(ptr noundef %87, ptr noundef %.1, ptr noundef %89, ptr noundef nonnull @.str.6) #6
  %91 = getelementptr inbounds i8, ptr %2, i64 40
  store ptr %90, ptr %91, align 8
  br label %92

92:                                               ; preds = %85, %84
  %93 = phi ptr [ %90, %85 ], [ %.pre, %84 ]
  ret ptr %93
}